target datalayout = "e-m:e-p270:32:32-p271:32:32-p272:64:64-i64:64-i128:128-f80:128-n8:16:32:64-S128"
target triple = "x86_64-pc-linux-gnu"

@bio_c_out = internal global ptr null, align 8
@.str.568 = private unnamed_addr constant [28 x i8] c"SERVERINFO FOR EXTENSION %d\00", align 1
@.str.569 = private unnamed_addr constant [1 x i8] zeroinitializer, align 1

; Function Attrs: nounwind uwtable
define internal i32 @serverinfo_cli_parse_cb(ptr noundef %0, i32 noundef %1, ptr noundef %2, i64 noundef %3, ptr noundef %4, ptr noundef %5) #0 {
  %7 = alloca ptr, align 8
  %8 = alloca i32, align 4
  %9 = alloca ptr, align 8
  %10 = alloca i64, align 8
  %11 = alloca ptr, align 8
  %12 = alloca ptr, align 8
  %13 = alloca [100 x i8], align 16
  %14 = alloca [65540 x i8], align 16
  store ptr %0, ptr %7, align 8, !tbaa !13
  store i32 %1, ptr %8, align 4, !tbaa !4
  store ptr %2, ptr %9, align 8, !tbaa !29
  store i64 %3, ptr %10, align 8, !tbaa !35
  store ptr %4, ptr %11, align 8, !tbaa !118
  store ptr %5, ptr %12, align 8, !tbaa !44
  call void @llvm.lifetime.start.p0(i64 100, ptr %13) #10
  call void @llvm.lifetime.start.p0(i64 65540, ptr %14) #10
  %15 = load i64, ptr %10, align 8, !tbaa !35
  %16 = and i64 %15, 65535
  store i64 %16, ptr %10, align 8, !tbaa !35
  %17 = load i32, ptr %8, align 4, !tbaa !4
  %18 = lshr i32 %17, 8
  %19 = trunc i32 %18 to i8
  %20 = getelementptr inbounds [65540 x i8], ptr %14, i64 0, i64 0
  store i8 %19, ptr %20, align 16, !tbaa !39
  %21 = load i32, ptr %8, align 4, !tbaa !4
  %22 = trunc i32 %21 to i8
  %23 = getelementptr inbounds [65540 x i8], ptr %14, i64 0, i64 1
  store i8 %22, ptr %23, align 1, !tbaa !39
  %24 = load i64, ptr %10, align 8, !tbaa !35
  %25 = lshr i64 %24, 8
  %26 = trunc i64 %25 to i8
  %27 = getelementptr inbounds [65540 x i8], ptr %14, i64 0, i64 2
  store i8 %26, ptr %27, align 2, !tbaa !39
  %28 = load i64, ptr %10, align 8, !tbaa !35
  %29 = trunc i64 %28 to i8
  %30 = getelementptr inbounds [65540 x i8], ptr %14, i64 0, i64 3
  store i8 %29, ptr %30, align 1, !tbaa !39
  %31 = getelementptr inbounds [65540 x i8], ptr %14, i64 0, i64 0
  %32 = getelementptr inbounds i8, ptr %31, i64 4
  %33 = load ptr, ptr %9, align 8, !tbaa !29
  %34 = load i64, ptr %10, align 8, !tbaa !35
  call void @llvm.memcpy.p0.p0.i64(ptr align 1 %32, ptr align 1 %33, i64 %34, i1 false)
  %35 = getelementptr inbounds [100 x i8], ptr %13, i64 0, i64 0
  %36 = load i32, ptr %8, align 4, !tbaa !4
  %37 = call i32 (ptr, i64, ptr, ...) @BIO_snprintf(ptr noundef %35, i64 noundef 100, ptr noundef @.str.568, i32 noundef %36)
  %38 = load ptr, ptr @bio_c_out, align 8, !tbaa !40
  %39 = getelementptr inbounds [100 x i8], ptr %13, i64 0, i64 0
  %40 = getelementptr inbounds [65540 x i8], ptr %14, i64 0, i64 0
  %41 = load i64, ptr %10, align 8, !tbaa !35
  %42 = add i64 4, %41
  %43 = call i32 @PEM_write_bio(ptr noundef %38, ptr noundef %39, ptr noundef @.str.569, ptr noundef %40, i64 noundef %42)
  call void @llvm.lifetime.end.p0(i64 65540, ptr %14) #10
  call void @llvm.lifetime.end.p0(i64 100, ptr %13) #10
  ret i32 1
}