; Function Attrs: nounwind uwtable
define internal noundef i32 @serverinfo_cli_parse_cb(ptr readnone captures(none) %0, i32 noundef %1, ptr noundef readonly captures(none) %2, i64 noundef %3, ptr readnone captures(none) %4, ptr readnone captures(none) %5) #0 {
  %7 = alloca [100 x i8], align 16
  %8 = alloca [65540 x i8], align 16
  call void @llvm.lifetime.start.p0(i64 100, ptr nonnull %7) #15
  call void @llvm.lifetime.start.p0(i64 65540, ptr nonnull %8) #15
  %9 = and i64 %3, 65535
  %10 = lshr i32 %1, 8
  %11 = trunc i32 %10 to i8
  store i8 %11, ptr %8, align 16, !tbaa !25
  %12 = trunc i32 %1 to i8
  %13 = getelementptr inbounds nuw i8, ptr %8, i64 1
  store i8 %12, ptr %13, align 1, !tbaa !25
  %14 = lshr i64 %3, 8
  %15 = trunc i64 %14 to i8
  %16 = getelementptr inbounds nuw i8, ptr %8, i64 2
  store i8 %15, ptr %16, align 2, !tbaa !25
  %17 = trunc i64 %3 to i8
  %18 = getelementptr inbounds nuw i8, ptr %8, i64 3
  store i8 %17, ptr %18, align 1, !tbaa !25
  %19 = getelementptr inbounds nuw i8, ptr %8, i64 4
  call void @llvm.memcpy.p0.p0.i64(ptr nonnull align 4 %19, ptr align 1 %2, i64 %9, i1 false)
  %20 = call i32 (ptr, i64, ptr, ...) @BIO_snprintf(ptr noundef nonnull %7, i64 noundef 100, ptr noundef nonnull @.str.568, i32 noundef %1) #15
  %21 = load ptr, ptr @bio_c_out, align 8, !tbaa !19
  %22 = add nuw nsw i64 %9, 4
  %23 = call i32 @PEM_write_bio(ptr noundef %21, ptr noundef nonnull %7, ptr noundef nonnull @.str.569, ptr noundef nonnull %8, i64 noundef %22) #15
  call void @llvm.lifetime.end.p0(i64 65540, ptr nonnull %8) #15
  call void @llvm.lifetime.end.p0(i64 100, ptr nonnull %7) #15
  ret i32 1
}